target datalayout = "e-m:e-p270:32:32-p271:32:32-p272:64:64-i64:64-i128:128-f80:128-n8:16:32:64-S128"
target triple = "x86_64-pc-linux-gnu"

%struct.AV1RawOBU = type { %struct.AV1RawOBUHeader, i64, %union.anon.0 }
%struct.AV1RawOBUHeader = type { i8, i8, i8, i8, i8, i8, i8, i8 }
%union.anon.0 = type { %struct.AV1RawMetadata }
%struct.AV1RawMetadata = type { i64, %union.anon.1 }
%union.anon.1 = type { %struct.AV1RawMetadataITUTT35, [2800 x i8] }
%struct.AV1RawMetadataITUTT35 = type { i8, i8, ptr, ptr, i64 }
%struct.AVBSFContext = type { ptr, ptr, ptr, ptr, ptr, %struct.AVRational, %struct.AVRational }
%struct.AVRational = type { i32, i32 }
%struct.AV1MetadataContext = type { %struct.CBSBSFContext, i32, %struct.AV1RawOBU, i32, i32, i32, i32, i32, %struct.AVRational, i32, i32 }
%struct.CBSBSFContext = type { ptr, ptr, ptr, ptr, %struct.CodedBitstreamFragment }
%struct.CodedBitstreamFragment = type { ptr, i64, i64, ptr, i32, i32, ptr }

@av1_metadata_type = internal constant { i32, [4 x i8], ptr, ptr, ptr } { i32 225, [4 x i8] zeroinitializer, ptr @.str.37, ptr @.str.38, ptr @av1_metadata_update_fragment }, align 8

; Function Attrs: nounwind uwtable
define internal i32 @av1_metadata_init(ptr noundef %0) #0 {
  %2 = alloca ptr, align 8
  %3 = alloca ptr, align 8
  %4 = alloca %struct.AV1RawOBU, align 8
  store ptr %0, ptr %2, align 8, !tbaa !4
  call void @llvm.lifetime.start.p0(i64 8, ptr %3) #5
  %5 = load ptr, ptr %2, align 8, !tbaa !4
  %6 = getelementptr inbounds nuw %struct.AVBSFContext, ptr %5, i32 0, i32 2
  %7 = load ptr, ptr %6, align 8, !tbaa !9
  store ptr %7, ptr %3, align 8, !tbaa !16
  %8 = load ptr, ptr %3, align 8, !tbaa !16
  %9 = getelementptr inbounds nuw %struct.AV1MetadataContext, ptr %8, i32 0, i32 2
  call void @llvm.memset.p0.i64(ptr align 8 %4, i8 0, i64 2856, i1 false)
  %10 = getelementptr inbounds nuw %struct.AV1RawOBU, ptr %4, i32 0, i32 0
  %11 = getelementptr inbounds nuw %struct.AV1RawOBUHeader, ptr %10, i32 0, i32 1
  store i8 2, ptr %11, align 1, !tbaa !18
  call void @llvm.memcpy.p0.p0.i64(ptr align 8 %9, ptr align 8 %4, i64 2856, i1 false), !tbaa.struct !20
  %12 = load ptr, ptr %2, align 8, !tbaa !4
  %13 = call i32 @ff_cbs_bsf_generic_init(ptr noundef %12, ptr noundef @av1_metadata_type)
  call void @llvm.lifetime.end.p0(i64 8, ptr %3) #5
  ret i32 %13
}