; Function Attrs: nounwind uwtable
define internal i32 @av1_metadata_init(ptr noundef %0) #0 {
  %2 = getelementptr inbounds nuw i8, ptr %0, i64 16
  %3 = load ptr, ptr %2, align 8, !tbaa !4
  %4 = getelementptr inbounds nuw i8, ptr %3, i64 88
  store i8 0, ptr %4, align 8, !tbaa !14
  %.sroa.2.0..sroa_idx = getelementptr inbounds nuw i8, ptr %3, i64 89
  store i8 2, ptr %.sroa.2.0..sroa_idx, align 1, !tbaa !14
  %.sroa.3.0..sroa_idx = getelementptr inbounds nuw i8, ptr %3, i64 90
  tail call void @llvm.memset.p0.i64(ptr noundef nonnull align 2 dereferenceable(2854) %.sroa.3.0..sroa_idx, i8 0, i64 2854, i1 false)
  %5 = tail call i32 @ff_cbs_bsf_generic_init(ptr noundef %0, ptr noundef nonnull @av1_metadata_type) #4
  ret i32 %5
}